target datalayout = "e-m:e-p270:32:32-p271:32:32-p272:64:64-i64:64-i128:128-f80:128-n8:16:32:64-S128"
target triple = "x86_64-pc-linux-gnu"

; Function Attrs: mustprogress nounwind uwtable
define dso_local noundef zeroext i1 @_ZN11StringUtils8is_spaceEc(i8 noundef signext %0) #4 align 2 {
  %2 = alloca i8, align 1
  store i8 %0, ptr %2, align 1
  %3 = load i8, ptr %2, align 1
  %4 = sext i8 %3 to i32
  %5 = icmp eq i32 %4, 32
  br i1 %5, label %14, label %6

6:                                                ; preds = %1
  %7 = load i8, ptr %2, align 1
  %8 = sext i8 %7 to i32
  %9 = icmp eq i32 %8, 9
  br i1 %9, label %14, label %10

10:                                               ; preds = %6
  %11 = load i8, ptr %2, align 1
  %12 = sext i8 %11 to i32
  %13 = icmp eq i32 %12, 10
  br label %14

14:                                               ; preds = %10, %6, %1
  %15 = phi i1 [ true, %6 ], [ true, %1 ], [ %13, %10 ]
  ret i1 %15
}

; Function Attrs: mustprogress nounwind uwtable
define dso_local void @_ZN11StringUtils13ignore_spacesERKNSt7__cxx1112basic_stringIcSt11char_traitsIcESaIcEEERm(ptr noundef nonnull align 8 dereferenceable(32) %0, ptr noundef nonnull align 8 dereferenceable(8) %1) #4 align 2 {
  %3 = alloca ptr, align 8
  %4 = alloca ptr, align 8
  store ptr %0, ptr %3, align 8
  store ptr %1, ptr %4, align 8
  br label %5

5:                                                ; preds = %12, %2
  %6 = load ptr, ptr %3, align 8
  %7 = load ptr, ptr %4, align 8
  %8 = load i64, ptr %7, align 8
  %9 = call noundef nonnull align 1 dereferenceable(1) ptr @_ZNKSt7__cxx1112basic_stringIcSt11char_traitsIcESaIcEEixEm(ptr noundef nonnull align 8 dereferenceable(32) %6, i64 noundef %8) #3
  %10 = load i8, ptr %9, align 1
  %11 = call noundef zeroext i1 @_ZN11StringUtils8is_spaceEc(i8 noundef signext %10)
  br i1 %11, label %12, label %16

12:                                               ; preds = %5
  %13 = load ptr, ptr %4, align 8
  %14 = load i64, ptr %13, align 8
  %15 = add i64 %14, 1
  store i64 %15, ptr %13, align 8
  br label %5, !llvm.loop !5

16:                                               ; preds = %5
  ret void
}

; Function Attrs: mustprogress nounwind uwtable
define dso_local noundef signext i8 @_ZN11StringUtils19first_nonspace_charERKNSt7__cxx1112basic_stringIcSt11char_traitsIcESaIcEEE(ptr noundef nonnull align 8 dereferenceable(32) %0) #4 align 2 {
  %2 = alloca i8, align 1
  %3 = alloca ptr, align 8
  %4 = alloca i64, align 8
  store ptr %0, ptr %3, align 8
  %5 = load ptr, ptr %3, align 8
  %6 = call noundef zeroext i1 @_ZNKSt7__cxx1112basic_stringIcSt11char_traitsIcESaIcEE5emptyEv(ptr noundef nonnull align 8 dereferenceable(32) %5) #3
  br i1 %6, label %7, label %8

7:                                                ; preds = %1
  store i8 0, ptr %2, align 1
  br label %14

8:                                                ; preds = %1
  store i64 0, ptr %4, align 8
  %9 = load ptr, ptr %3, align 8
  call void @_ZN11StringUtils13ignore_spacesERKNSt7__cxx1112basic_stringIcSt11char_traitsIcESaIcEEERm(ptr noundef nonnull align 8 dereferenceable(32) %9, ptr noundef nonnull align 8 dereferenceable(8) %4)
  %10 = load ptr, ptr %3, align 8
  %11 = load i64, ptr %4, align 8
  %12 = call noundef nonnull align 1 dereferenceable(1) ptr @_ZNKSt7__cxx1112basic_stringIcSt11char_traitsIcESaIcEEixEm(ptr noundef nonnull align 8 dereferenceable(32) %10, i64 noundef %11) #3
  %13 = load i8, ptr %12, align 1
  store i8 %13, ptr %2, align 1
  br label %14

14:                                               ; preds = %8, %7
  %15 = load i8, ptr %2, align 1
  ret i8 %15
}