; Function Attrs: mustprogress nounwind uwtable
define dso_local noundef signext i8 @_ZN11StringUtils19first_nonspace_charERKNSt7__cxx1112basic_stringIcSt11char_traitsIcESaIcEEE(ptr noundef nonnull align 8 dereferenceable(32) %0) local_unnamed_addr #3 align 2 {
  %2 = tail call noundef zeroext i1 @_ZNKSt7__cxx1112basic_stringIcSt11char_traitsIcESaIcEE5emptyEv(ptr noundef nonnull align 8 dereferenceable(32) %0) #18
  br i1 %2, label %9, label %.preheader

.preheader:                                       ; preds = %1, %5
  %.05 = phi i64 [ %6, %5 ], [ 0, %1 ]
  %3 = tail call noundef nonnull align 1 dereferenceable(1) ptr @_ZNKSt7__cxx1112basic_stringIcSt11char_traitsIcESaIcEEixEm(ptr noundef nonnull align 8 dereferenceable(32) %0, i64 noundef %.05) #18
  %4 = load i8, ptr %3, align 1
  switch i8 %4, label %_ZN11StringUtils13ignore_spacesERKNSt7__cxx1112basic_stringIcSt11char_traitsIcESaIcEEERm.exit [
    i8 32, label %5
    i8 9, label %5
    i8 10, label %5
  ]

5:                                                ; preds = %.preheader, %.preheader, %.preheader
  %6 = add i64 %.05, 1
  br label %.preheader, !llvm.loop !5

_ZN11StringUtils13ignore_spacesERKNSt7__cxx1112basic_stringIcSt11char_traitsIcESaIcEEERm.exit: ; preds = %.preheader
  %7 = tail call noundef nonnull align 1 dereferenceable(1) ptr @_ZNKSt7__cxx1112basic_stringIcSt11char_traitsIcESaIcEEixEm(ptr noundef nonnull align 8 dereferenceable(32) %0, i64 noundef %.05) #18
  %8 = load i8, ptr %7, align 1
  br label %9

9:                                                ; preds = %1, %_ZN11StringUtils13ignore_spacesERKNSt7__cxx1112basic_stringIcSt11char_traitsIcESaIcEEERm.exit
  %.0 = phi i8 [ %8, %_ZN11StringUtils13ignore_spacesERKNSt7__cxx1112basic_stringIcSt11char_traitsIcESaIcEEERm.exit ], [ 0, %1 ]
  ret i8 %.0
}